target datalayout = "e-m:e-p270:32:32-p271:32:32-p272:64:64-i64:64-i128:128-f80:128-n8:16:32:64-S128"
target triple = "x86_64-pc-linux-gnu"

%struct.ExprEvalStep = type { i64, ptr, ptr, %union.anon }
%union.anon = type { %struct.anon.23 }
%struct.anon.23 = type { ptr, ptr, i32, i32, ptr, ptr }
%struct.ExprState = type { i32, i8, i8, i64, ptr, ptr, ptr, ptr, ptr, i32, i32, ptr, ptr, ptr, ptr, ptr, ptr, ptr }
%struct.Node = type { i32 }
%struct.ExprSetupInfo = type { i16, i16, i16, i16, i16, ptr }

; Function Attrs: nounwind uwtable
define internal void @ExecReadyExpr(ptr noundef %0) #0 {
  %2 = alloca ptr, align 8
  store ptr %0, ptr %2, align 8
  %3 = load ptr, ptr %2, align 8
  %4 = call zeroext i1 @jit_compile_expr(ptr noundef %3)
  br i1 %4, label %5, label %6

5:                                                ; preds = %1
  br label %8

6:                                                ; preds = %1
  %7 = load ptr, ptr %2, align 8
  call void @ExecReadyInterpretedExpr(ptr noundef %7)
  br label %8

8:                                                ; preds = %6, %5
  ret void
}

; Function Attrs: nounwind uwtable
define dso_local void @ExprEvalPushStep(ptr noundef %0, ptr noundef %1) #0 {
  %3 = alloca ptr, align 8
  %4 = alloca ptr, align 8
  store ptr %0, ptr %3, align 8
  store ptr %1, ptr %4, align 8
  %5 = load ptr, ptr %3, align 8
  %6 = getelementptr inbounds nuw %struct.ExprState, ptr %5, i32 0, i32 10
  %7 = load i32, ptr %6, align 4
  %8 = icmp eq i32 %7, 0
  br i1 %8, label %9, label %20

9:                                                ; preds = %2
  %10 = load ptr, ptr %3, align 8
  %11 = getelementptr inbounds nuw %struct.ExprState, ptr %10, i32 0, i32 10
  store i32 16, ptr %11, align 4
  %12 = load ptr, ptr %3, align 8
  %13 = getelementptr inbounds nuw %struct.ExprState, ptr %12, i32 0, i32 10
  %14 = load i32, ptr %13, align 4
  %15 = sext i32 %14 to i64
  %16 = mul i64 64, %15
  %17 = call ptr @palloc(i64 noundef %16)
  %18 = load ptr, ptr %3, align 8
  %19 = getelementptr inbounds nuw %struct.ExprState, ptr %18, i32 0, i32 5
  store ptr %17, ptr %19, align 8
  br label %45

20:                                               ; preds = %2
  %21 = load ptr, ptr %3, align 8
  %22 = getelementptr inbounds nuw %struct.ExprState, ptr %21, i32 0, i32 10
  %23 = load i32, ptr %22, align 4
  %24 = load ptr, ptr %3, align 8
  %25 = getelementptr inbounds nuw %struct.ExprState, ptr %24, i32 0, i32 9
  %26 = load i32, ptr %25, align 8
  %27 = icmp eq i32 %23, %26
  br i1 %27, label %28, label %44

28:                                               ; preds = %20
  %29 = load ptr, ptr %3, align 8
  %30 = getelementptr inbounds nuw %struct.ExprState, ptr %29, i32 0, i32 10
  %31 = load i32, ptr %30, align 4
  %32 = mul i32 %31, 2
  store i32 %32, ptr %30, align 4
  %33 = load ptr, ptr %3, align 8
  %34 = getelementptr inbounds nuw %struct.ExprState, ptr %33, i32 0, i32 5
  %35 = load ptr, ptr %34, align 8
  %36 = load ptr, ptr %3, align 8
  %37 = getelementptr inbounds nuw %struct.ExprState, ptr %36, i32 0, i32 10
  %38 = load i32, ptr %37, align 4
  %39 = sext i32 %38 to i64
  %40 = mul i64 64, %39
  %41 = call ptr @repalloc(ptr noundef %35, i64 noundef %40)
  %42 = load ptr, ptr %3, align 8
  %43 = getelementptr inbounds nuw %struct.ExprState, ptr %42, i32 0, i32 5
  store ptr %41, ptr %43, align 8
  br label %44

44:                                               ; preds = %28, %20
  br label %45

45:                                               ; preds = %44, %9
  %46 = load ptr, ptr %3, align 8
  %47 = getelementptr inbounds nuw %struct.ExprState, ptr %46, i32 0, i32 5
  %48 = load ptr, ptr %47, align 8
  %49 = load ptr, ptr %3, align 8
  %50 = getelementptr inbounds nuw %struct.ExprState, ptr %49, i32 0, i32 9
  %51 = load i32, ptr %50, align 8
  %52 = add i32 %51, 1
  store i32 %52, ptr %50, align 8
  %53 = sext i32 %51 to i64
  %54 = getelementptr inbounds %struct.ExprEvalStep, ptr %48, i64 %53
  %55 = load ptr, ptr %4, align 8
  call void @llvm.memcpy.p0.p0.i64(ptr align 8 %54, ptr align 8 %55, i64 64, i1 false)
  ret void
}

; Function Attrs: nounwind uwtable
define internal void @ExecCreateExprSetupSteps(ptr noundef %0, ptr noundef %1) #0 {
  %3 = alloca ptr, align 8
  %4 = alloca ptr, align 8
  %5 = alloca %struct.ExprSetupInfo, align 8
  store ptr %0, ptr %3, align 8
  store ptr %1, ptr %4, align 8
  call void @llvm.lifetime.start.p0(i64 24, ptr %5) #8
  call void @llvm.memset.p0.i64(ptr align 8 %5, i8 0, i64 24, i1 false)
  %6 = load ptr, ptr %4, align 8
  %7 = call zeroext i1 @expr_setup_walker(ptr noundef %6, ptr noundef %5)
  %8 = load ptr, ptr %3, align 8
  call void @ExecPushExprSetupSteps(ptr noundef %8, ptr noundef %5)
  call void @llvm.lifetime.end.p0(i64 24, ptr %5) #8
  ret void
}

; Function Attrs: inlinehint nounwind uwtable
define internal ptr @newNode(i64 noundef %0, i32 noundef %1) #3 {
  %3 = alloca i64, align 8
  %4 = alloca i32, align 4
  %5 = alloca ptr, align 8
  store i64 %0, ptr %3, align 8
  store i32 %1, ptr %4, align 4
  call void @llvm.lifetime.start.p0(i64 8, ptr %5) #8
  %6 = load i64, ptr %3, align 8
  %7 = call ptr @palloc0(i64 noundef %6)
  store ptr %7, ptr %5, align 8
  %8 = load i32, ptr %4, align 4
  %9 = load ptr, ptr %5, align 8
  %10 = getelementptr inbounds nuw %struct.Node, ptr %9, i32 0, i32 0
  store i32 %8, ptr %10, align 4
  %11 = load ptr, ptr %5, align 8
  call void @llvm.lifetime.end.p0(i64 8, ptr %5) #8
  ret ptr %11
}

; Function Attrs: nounwind uwtable
define dso_local ptr @ExecInitExprWithParams(ptr noundef %0, ptr noundef %1) #0 {
  %3 = alloca ptr, align 8
  %4 = alloca ptr, align 8
  %5 = alloca ptr, align 8
  %6 = alloca ptr, align 8
  %7 = alloca %struct.ExprEvalStep, align 8
  %8 = alloca i32, align 4
  store ptr %0, ptr %4, align 8
  store ptr %1, ptr %5, align 8
  call void @llvm.lifetime.start.p0(i64 8, ptr %6) #8
  call void @llvm.lifetime.start.p0(i64 64, ptr %7) #8
  call void @llvm.memset.p0.i64(ptr align 8 %7, i8 0, i64 64, i1 false)
  %9 = load ptr, ptr %4, align 8
  %10 = icmp eq ptr %9, null
  br i1 %10, label %11, label %12

11:                                               ; preds = %2
  store ptr null, ptr %3, align 8
  store i32 1, ptr %8, align 4
  br label %34

12:                                               ; preds = %2
  %13 = call ptr @newNode(i64 noundef 120, i32 noundef 379)
  store ptr %13, ptr %6, align 8
  %14 = load ptr, ptr %4, align 8
  %15 = load ptr, ptr %6, align 8
  %16 = getelementptr inbounds nuw %struct.ExprState, ptr %15, i32 0, i32 7
  store ptr %14, ptr %16, align 8
  %17 = load ptr, ptr %6, align 8
  %18 = getelementptr inbounds nuw %struct.ExprState, ptr %17, i32 0, i32 11
  store ptr null, ptr %18, align 8
  %19 = load ptr, ptr %5, align 8
  %20 = load ptr, ptr %6, align 8
  %21 = getelementptr inbounds nuw %struct.ExprState, ptr %20, i32 0, i32 12
  store ptr %19, ptr %21, align 8
  %22 = load ptr, ptr %6, align 8
  %23 = load ptr, ptr %4, align 8
  call void @ExecCreateExprSetupSteps(ptr noundef %22, ptr noundef %23)
  %24 = load ptr, ptr %4, align 8
  %25 = load ptr, ptr %6, align 8
  %26 = load ptr, ptr %6, align 8
  %27 = getelementptr inbounds nuw %struct.ExprState, ptr %26, i32 0, i32 3
  %28 = load ptr, ptr %6, align 8
  %29 = getelementptr inbounds nuw %struct.ExprState, ptr %28, i32 0, i32 2
  call void @ExecInitExprRec(ptr noundef %24, ptr noundef %25, ptr noundef %27, ptr noundef %29)
  %30 = getelementptr inbounds nuw %struct.ExprEvalStep, ptr %7, i32 0, i32 0
  store i64 0, ptr %30, align 8
  %31 = load ptr, ptr %6, align 8
  call void @ExprEvalPushStep(ptr noundef %31, ptr noundef %7)
  %32 = load ptr, ptr %6, align 8
  call void @ExecReadyExpr(ptr noundef %32)
  %33 = load ptr, ptr %6, align 8
  store ptr %33, ptr %3, align 8
  store i32 1, ptr %8, align 4
  br label %34

34:                                               ; preds = %12, %11
  call void @llvm.lifetime.end.p0(i64 64, ptr %7) #8
  call void @llvm.lifetime.end.p0(i64 8, ptr %6) #8
  %35 = load ptr, ptr %3, align 8
  ret ptr %35
}