; Function Attrs: nounwind uwtable
define dso_local noundef ptr @ExecInitExprWithParams(ptr noundef %0, ptr noundef %1) local_unnamed_addr #0 {
  %3 = alloca %struct.ExprSetupInfo, align 8
  %4 = icmp eq ptr %0, null
  br i1 %4, label %ExecReadyExpr.exit, label %5

5:                                                ; preds = %2
  %6 = tail call noundef ptr @palloc0(i64 noundef 120) #10
  store i32 379, ptr %6, align 4
  %7 = getelementptr inbounds nuw i8, ptr %6, i64 40
  store ptr %0, ptr %7, align 8
  %8 = getelementptr inbounds nuw i8, ptr %6, i64 64
  store ptr null, ptr %8, align 8
  %9 = getelementptr inbounds nuw i8, ptr %6, i64 72
  store ptr %1, ptr %9, align 8
  call void @llvm.lifetime.start.p0(i64 24, ptr nonnull %3) #10
  call void @llvm.memset.p0.i64(ptr noundef nonnull align 8 dereferenceable(24) %3, i8 0, i64 24, i1 false)
  %10 = call zeroext i1 @expr_setup_walker(ptr noundef nonnull %0, ptr noundef nonnull %3)
  call fastcc void @ExecPushExprSetupSteps(ptr noundef nonnull %6, ptr noundef %3)
  call void @llvm.lifetime.end.p0(i64 24, ptr nonnull %3) #10
  %11 = getelementptr inbounds nuw i8, ptr %6, i64 8
  %12 = getelementptr inbounds nuw i8, ptr %6, i64 5
  call fastcc void @ExecInitExprRec(ptr noundef nonnull %0, ptr noundef nonnull %6, ptr noundef nonnull %11, ptr noundef nonnull %12)
  %13 = getelementptr inbounds nuw i8, ptr %6, i64 60
  %14 = load i32, ptr %13, align 4
  %15 = icmp eq i32 %14, 0
  br i1 %15, label %16, label %19

16:                                               ; preds = %5
  store i32 16, ptr %13, align 4
  %17 = call ptr @palloc(i64 noundef 1024) #10
  %18 = getelementptr inbounds nuw i8, ptr %6, i64 24
  store ptr %17, ptr %18, align 8
  br label %ExprEvalPushStep.exit

19:                                               ; preds = %5
  %20 = getelementptr inbounds nuw i8, ptr %6, i64 56
  %21 = load i32, ptr %20, align 8
  %22 = icmp eq i32 %14, %21
  br i1 %22, label %23, label %._crit_edge.i

._crit_edge.i:                                    ; preds = %19
  %.phi.trans.insert.i = getelementptr inbounds nuw i8, ptr %6, i64 24
  %.pre.i = load ptr, ptr %.phi.trans.insert.i, align 8
  br label %ExprEvalPushStep.exit

23:                                               ; preds = %19
  %24 = shl i32 %14, 1
  store i32 %24, ptr %13, align 4
  %25 = getelementptr inbounds nuw i8, ptr %6, i64 24
  %26 = load ptr, ptr %25, align 8
  %27 = sext i32 %24 to i64
  %28 = shl nsw i64 %27, 6
  %29 = call ptr @repalloc(ptr noundef %26, i64 noundef %28) #10
  store ptr %29, ptr %25, align 8
  br label %ExprEvalPushStep.exit

ExprEvalPushStep.exit:                            ; preds = %16, %._crit_edge.i, %23
  %30 = phi ptr [ %.pre.i, %._crit_edge.i ], [ %29, %23 ], [ %17, %16 ]
  %31 = getelementptr inbounds nuw i8, ptr %6, i64 56
  %32 = load i32, ptr %31, align 8
  %33 = add i32 %32, 1
  store i32 %33, ptr %31, align 8
  %34 = sext i32 %32 to i64
  %35 = getelementptr inbounds %struct.ExprEvalStep, ptr %30, i64 %34
  call void @llvm.memset.p0.i64(ptr noundef nonnull align 8 dereferenceable(64) %35, i8 0, i64 64, i1 false)
  %36 = call zeroext i1 @jit_compile_expr(ptr noundef nonnull %6) #10
  br i1 %36, label %ExecReadyExpr.exit, label %37

37:                                               ; preds = %ExprEvalPushStep.exit
  call void @ExecReadyInterpretedExpr(ptr noundef nonnull %6) #10
  br label %ExecReadyExpr.exit

ExecReadyExpr.exit:                               ; preds = %37, %ExprEvalPushStep.exit, %2
  %.0 = phi ptr [ null, %2 ], [ %6, %ExprEvalPushStep.exit ], [ %6, %37 ]
  ret ptr %.0
}